target datalayout = "e-m:e-p270:32:32-p271:32:32-p272:64:64-i64:64-i128:128-f80:128-n8:16:32:64-S128"
target triple = "x86_64-pc-linux-gnu"

@.str = private unnamed_addr constant [2 x i32] [i32 42, i32 0], align 4

; Function Attrs: mustprogress uwtable
define noundef zeroext i1 @_ZN11CommandData9CheckArgsEP10StringListbPKwbi(ptr noundef %0, i1 noundef zeroext %1, ptr noundef %2, i1 noundef zeroext %3, i32 noundef %4) #0 align 2 {
  %6 = alloca i1, align 1
  %7 = alloca ptr, align 8
  %8 = alloca i8, align 1
  %9 = alloca ptr, align 8
  %10 = alloca i8, align 1
  %11 = alloca i32, align 4
  %12 = alloca ptr, align 8
  %13 = alloca [2048 x i32], align 16
  %14 = alloca [2048 x i32], align 16
  %15 = alloca ptr, align 8
  %16 = alloca i8, align 1
  %17 = alloca [2050 x i32], align 16
  %18 = alloca ptr, align 8
  %19 = alloca ptr, align 8
  store ptr %0, ptr %7, align 8
  %20 = zext i1 %1 to i8
  store i8 %20, ptr %8, align 1
  store ptr %2, ptr %9, align 8
  %21 = zext i1 %3 to i8
  store i8 %21, ptr %10, align 1
  store i32 %4, ptr %11, align 4
  %22 = load ptr, ptr %9, align 8
  %23 = call noundef ptr @_Z11ConvertPathPKwPwm(ptr noundef %22, ptr noundef null, i64 noundef 0)
  store ptr %23, ptr %12, align 8
  %24 = getelementptr inbounds [2048 x i32], ptr %13, i64 0, i64 0
  store i32 0, ptr %24, align 16
  %25 = load ptr, ptr %7, align 8
  call void @_ZN10StringList6RewindEv(ptr noundef nonnull align 8 dereferenceable(184) %25)
  br label %26

26:                                               ; preds = %99, %5
  %27 = load ptr, ptr %7, align 8
  %28 = getelementptr inbounds [2048 x i32], ptr %14, i64 0, i64 0
  %29 = call noundef zeroext i1 @_ZN10StringList9GetStringEPwm(ptr noundef nonnull align 8 dereferenceable(184) %27, ptr noundef %28, i64 noundef 2048)
  br i1 %29, label %30, label %100

30:                                               ; preds = %26
  %31 = getelementptr inbounds [2048 x i32], ptr %14, i64 0, i64 0
  %32 = call noundef ptr @_Z15PointToLastCharPKw(ptr noundef %31)
  store ptr %32, ptr %15, align 8
  %33 = load ptr, ptr %15, align 8
  %34 = load i32, ptr %33, align 4
  %35 = call noundef zeroext i1 @_Z9IsPathDivi(i32 noundef %34)
  %36 = zext i1 %35 to i8
  store i8 %36, ptr %16, align 1
  %37 = load i8, ptr %8, align 1
  %38 = trunc i8 %37 to i1
  br i1 %38, label %39, label %46

39:                                               ; preds = %30
  %40 = load i8, ptr %16, align 1
  %41 = trunc i8 %40 to i1
  br i1 %41, label %42, label %44

42:                                               ; preds = %39
  %43 = load ptr, ptr %15, align 8
  store i32 0, ptr %43, align 4
  br label %45

44:                                               ; preds = %39
  br label %45

45:                                               ; preds = %44, %42
  br label %52

46:                                               ; preds = %30
  %47 = load i8, ptr %16, align 1
  %48 = trunc i8 %47 to i1
  br i1 %48, label %49, label %51

49:                                               ; preds = %46
  %50 = getelementptr inbounds [2048 x i32], ptr %14, i64 0, i64 0
  call void @_Z8wcsncatzPwPKwm(ptr noundef %50, ptr noundef @.str, i64 noundef 2048)
  br label %51

51:                                               ; preds = %49, %46
  br label %52

52:                                               ; preds = %51, %45
  %53 = load i8, ptr %10, align 1
  %54 = trunc i8 %53 to i1
  br i1 %54, label %55, label %72

55:                                               ; preds = %52
  %56 = getelementptr inbounds [2048 x i32], ptr %14, i64 0, i64 0
  %57 = call noundef zeroext i1 @_Z10IsFullPathPKw(ptr noundef %56)
  br i1 %57, label %58, label %72

58:                                               ; preds = %55
  %59 = getelementptr inbounds [2048 x i32], ptr %13, i64 0, i64 0
  %60 = load i32, ptr %59, align 16
  %61 = icmp eq i32 %60, 0
  br i1 %61, label %62, label %65

62:                                               ; preds = %58
  %63 = load ptr, ptr %9, align 8
  %64 = getelementptr inbounds [2048 x i32], ptr %13, i64 0, i64 0
  call void @_Z17ConvertNameToFullPKwPwm(ptr noundef %63, ptr noundef %64, i64 noundef 2048)
  br label %65

65:                                               ; preds = %62, %58
  %66 = getelementptr inbounds [2048 x i32], ptr %14, i64 0, i64 0
  %67 = getelementptr inbounds [2048 x i32], ptr %13, i64 0, i64 0
  %68 = load i32, ptr %11, align 4
  %69 = call noundef zeroext i1 @_Z7CmpNamePKwS0_i(ptr noundef %66, ptr noundef %67, i32 noundef %68)
  br i1 %69, label %70, label %71

70:                                               ; preds = %65
  store i1 true, ptr %6, align 1
  br label %101

71:                                               ; preds = %65
  br label %99

72:                                               ; preds = %55, %52
  %73 = load ptr, ptr %12, align 8
  store ptr %73, ptr %18, align 8
  %74 = getelementptr inbounds [2048 x i32], ptr %14, i64 0, i64 0
  %75 = call noundef ptr @_Z11ConvertPathPKwPwm(ptr noundef %74, ptr noundef null, i64 noundef 0)
  store ptr %75, ptr %19, align 8
  %76 = load ptr, ptr %19, align 8
  %77 = getelementptr inbounds i32, ptr %76, i64 0
  %78 = load i32, ptr %77, align 4
  %79 = icmp eq i32 %78, 42
  br i1 %79, label %80, label %92

80:                                               ; preds = %72
  %81 = load ptr, ptr %19, align 8
  %82 = getelementptr inbounds i32, ptr %81, i64 1
  %83 = load i32, ptr %82, align 4
  %84 = call noundef zeroext i1 @_Z9IsPathDivi(i32 noundef %83)
  br i1 %84, label %85, label %92

85:                                               ; preds = %80
  %86 = getelementptr inbounds [2050 x i32], ptr %17, i64 0, i64 0
  store i32 46, ptr %86, align 16
  %87 = getelementptr inbounds [2050 x i32], ptr %17, i64 0, i64 1
  store i32 47, ptr %87, align 4
  %88 = getelementptr inbounds [2050 x i32], ptr %17, i64 0, i64 0
  %89 = getelementptr inbounds i32, ptr %88, i64 2
  %90 = load ptr, ptr %12, align 8
  call void @_Z8wcsncpyzPwPKwm(ptr noundef %89, ptr noundef %90, i64 noundef 2048)
  %91 = getelementptr inbounds [2050 x i32], ptr %17, i64 0, i64 0
  store ptr %91, ptr %18, align 8
  br label %92

92:                                               ; preds = %85, %80, %72
  %93 = load ptr, ptr %19, align 8
  %94 = load ptr, ptr %18, align 8
  %95 = load i32, ptr %11, align 4
  %96 = call noundef zeroext i1 @_Z7CmpNamePKwS0_i(ptr noundef %93, ptr noundef %94, i32 noundef %95)
  br i1 %96, label %97, label %98

97:                                               ; preds = %92
  store i1 true, ptr %6, align 1
  br label %101

98:                                               ; preds = %92
  br label %99

99:                                               ; preds = %98, %71
  br label %26, !llvm.loop !4

100:                                              ; preds = %26
  store i1 false, ptr %6, align 1
  br label %101

101:                                              ; preds = %100, %97, %70
  %102 = load i1, ptr %6, align 1
  ret i1 %102
}