; Function Attrs: mustprogress uwtable
define noundef zeroext i1 @_ZN11CommandData9CheckArgsEP10StringListbPKwbi(ptr noundef %0, i1 noundef zeroext %1, ptr noundef %2, i1 noundef zeroext %3, i32 noundef %4) local_unnamed_addr #0 align 2 {
  %6 = alloca [2048 x i32], align 16
  %7 = alloca [2048 x i32], align 16
  %8 = alloca [2050 x i32], align 16
  %9 = tail call noundef ptr @_Z11ConvertPathPKwPwm(ptr noundef %2, ptr noundef null, i64 noundef 0)
  store i32 0, ptr %6, align 16
  tail call void @_ZN10StringList6RewindEv(ptr noundef nonnull align 8 dereferenceable(184) %0)
  %10 = call noundef zeroext i1 @_ZN10StringList9GetStringEPwm(ptr noundef nonnull align 8 dereferenceable(184) %0, ptr noundef nonnull %7, i64 noundef 2048)
  br i1 %10, label %.lr.ph, label %._crit_edge

.lr.ph:                                           ; preds = %5
  %11 = getelementptr inbounds nuw i8, ptr %8, i64 4
  %12 = getelementptr inbounds nuw i8, ptr %8, i64 8
  br i1 %3, label %.lr.ph.split.us, label %.lr.ph.split

.lr.ph.split.us:                                  ; preds = %.lr.ph, %39
  %13 = call noundef ptr @_Z15PointToLastCharPKw(ptr noundef nonnull %7)
  %14 = load i32, ptr %13, align 4
  %15 = call noundef zeroext i1 @_Z9IsPathDivi(i32 noundef %14)
  br i1 %1, label %18, label %16

16:                                               ; preds = %.lr.ph.split.us
  br i1 %15, label %17, label %20

17:                                               ; preds = %16
  call void @_Z8wcsncatzPwPKwm(ptr noundef nonnull %7, ptr noundef nonnull @.str, i64 noundef 2048)
  br label %20

18:                                               ; preds = %.lr.ph.split.us
  br i1 %15, label %19, label %20

19:                                               ; preds = %18
  store i32 0, ptr %13, align 4
  br label %20

20:                                               ; preds = %19, %18, %17, %16
  %21 = call noundef zeroext i1 @_Z10IsFullPathPKw(ptr noundef nonnull %7)
  br i1 %21, label %33, label %22

22:                                               ; preds = %20
  %23 = call noundef ptr @_Z11ConvertPathPKwPwm(ptr noundef nonnull %7, ptr noundef null, i64 noundef 0)
  %24 = load i32, ptr %23, align 4
  %25 = icmp eq i32 %24, 42
  br i1 %25, label %26, label %31

26:                                               ; preds = %22
  %27 = getelementptr inbounds nuw i8, ptr %23, i64 4
  %28 = load i32, ptr %27, align 4
  %29 = call noundef zeroext i1 @_Z9IsPathDivi(i32 noundef %28)
  br i1 %29, label %30, label %31

30:                                               ; preds = %26
  store i32 46, ptr %8, align 16
  store i32 47, ptr %11, align 4
  call void @_Z8wcsncpyzPwPKwm(ptr noundef nonnull %12, ptr noundef %9, i64 noundef 2048)
  br label %31

31:                                               ; preds = %30, %26, %22
  %.018.us = phi ptr [ %8, %30 ], [ %9, %26 ], [ %9, %22 ]
  %32 = call noundef zeroext i1 @_Z7CmpNamePKwS0_i(ptr noundef nonnull %23, ptr noundef %.018.us, i32 noundef %4)
  br i1 %32, label %._crit_edge, label %39

33:                                               ; preds = %20
  %34 = load i32, ptr %6, align 16
  %35 = icmp eq i32 %34, 0
  br i1 %35, label %36, label %37

36:                                               ; preds = %33
  call void @_Z17ConvertNameToFullPKwPwm(ptr noundef %2, ptr noundef nonnull %6, i64 noundef 2048)
  br label %37

37:                                               ; preds = %36, %33
  %38 = call noundef zeroext i1 @_Z7CmpNamePKwS0_i(ptr noundef nonnull %7, ptr noundef nonnull %6, i32 noundef %4)
  br i1 %38, label %._crit_edge, label %39

39:                                               ; preds = %37, %31
  %40 = call noundef zeroext i1 @_ZN10StringList9GetStringEPwm(ptr noundef nonnull align 8 dereferenceable(184) %0, ptr noundef nonnull %7, i64 noundef 2048)
  br i1 %40, label %.lr.ph.split.us, label %._crit_edge, !llvm.loop !4

.lr.ph.split:                                     ; preds = %.lr.ph
  br i1 %1, label %.lr.ph.split.split.us, label %.lr.ph.split.split

.lr.ph.split.split.us:                            ; preds = %.lr.ph.split, %56
  %41 = call noundef ptr @_Z15PointToLastCharPKw(ptr noundef nonnull %7)
  %42 = load i32, ptr %41, align 4
  %43 = call noundef zeroext i1 @_Z9IsPathDivi(i32 noundef %42)
  br i1 %43, label %44, label %45

44:                                               ; preds = %.lr.ph.split.split.us
  store i32 0, ptr %41, align 4
  br label %45

45:                                               ; preds = %44, %.lr.ph.split.split.us
  %46 = call noundef ptr @_Z11ConvertPathPKwPwm(ptr noundef nonnull %7, ptr noundef null, i64 noundef 0)
  %47 = load i32, ptr %46, align 4
  %48 = icmp eq i32 %47, 42
  br i1 %48, label %49, label %54

49:                                               ; preds = %45
  %50 = getelementptr inbounds nuw i8, ptr %46, i64 4
  %51 = load i32, ptr %50, align 4
  %52 = call noundef zeroext i1 @_Z9IsPathDivi(i32 noundef %51)
  br i1 %52, label %53, label %54

53:                                               ; preds = %49
  store i32 46, ptr %8, align 16
  store i32 47, ptr %11, align 4
  call void @_Z8wcsncpyzPwPKwm(ptr noundef nonnull %12, ptr noundef %9, i64 noundef 2048)
  br label %54

54:                                               ; preds = %53, %49, %45
  %.018.us25 = phi ptr [ %8, %53 ], [ %9, %49 ], [ %9, %45 ]
  %55 = call noundef zeroext i1 @_Z7CmpNamePKwS0_i(ptr noundef nonnull %46, ptr noundef %.018.us25, i32 noundef %4)
  br i1 %55, label %._crit_edge, label %56

56:                                               ; preds = %54
  %57 = call noundef zeroext i1 @_ZN10StringList9GetStringEPwm(ptr noundef nonnull align 8 dereferenceable(184) %0, ptr noundef nonnull %7, i64 noundef 2048)
  br i1 %57, label %.lr.ph.split.split.us, label %._crit_edge, !llvm.loop !4

.lr.ph.split.split:                               ; preds = %.lr.ph.split, %73
  %58 = call noundef ptr @_Z15PointToLastCharPKw(ptr noundef nonnull %7)
  %59 = load i32, ptr %58, align 4
  %60 = call noundef zeroext i1 @_Z9IsPathDivi(i32 noundef %59)
  br i1 %60, label %61, label %62

61:                                               ; preds = %.lr.ph.split.split
  call void @_Z8wcsncatzPwPKwm(ptr noundef nonnull %7, ptr noundef nonnull @.str, i64 noundef 2048)
  br label %62

62:                                               ; preds = %.lr.ph.split.split, %61
  %63 = call noundef ptr @_Z11ConvertPathPKwPwm(ptr noundef nonnull %7, ptr noundef null, i64 noundef 0)
  %64 = load i32, ptr %63, align 4
  %65 = icmp eq i32 %64, 42
  br i1 %65, label %66, label %71

66:                                               ; preds = %62
  %67 = getelementptr inbounds nuw i8, ptr %63, i64 4
  %68 = load i32, ptr %67, align 4
  %69 = call noundef zeroext i1 @_Z9IsPathDivi(i32 noundef %68)
  br i1 %69, label %70, label %71

70:                                               ; preds = %66
  store i32 46, ptr %8, align 16
  store i32 47, ptr %11, align 4
  call void @_Z8wcsncpyzPwPKwm(ptr noundef nonnull %12, ptr noundef %9, i64 noundef 2048)
  br label %71

71:                                               ; preds = %70, %66, %62
  %.018 = phi ptr [ %8, %70 ], [ %9, %66 ], [ %9, %62 ]
  %72 = call noundef zeroext i1 @_Z7CmpNamePKwS0_i(ptr noundef nonnull %63, ptr noundef %.018, i32 noundef %4)
  br i1 %72, label %._crit_edge, label %73

73:                                               ; preds = %71
  %74 = call noundef zeroext i1 @_ZN10StringList9GetStringEPwm(ptr noundef nonnull align 8 dereferenceable(184) %0, ptr noundef nonnull %7, i64 noundef 2048)
  br i1 %74, label %.lr.ph.split.split, label %._crit_edge, !llvm.loop !4

._crit_edge:                                      ; preds = %71, %73, %54, %56, %37, %31, %39, %5
  %.lcssa = phi i1 [ false, %5 ], [ false, %39 ], [ true, %31 ], [ true, %37 ], [ %55, %56 ], [ %55, %54 ], [ %72, %73 ], [ %72, %71 ]
  ret i1 %.lcssa
}